	.file	"inline_manually.c"
# GNU C17 (Ubuntu 13.2.0-23ubuntu4) version 13.2.0 (x86_64-linux-gnu)
#	compiled by GNU C version 13.2.0, GMP version 6.3.0, MPFR version 4.2.1, MPC version 1.3.1, isl version isl-0.26-GMP

# GGC heuristics: --param ggc-min-expand=100 --param ggc-min-heapsize=131072
# options passed: -mtune=generic -march=x86-64 -g -O2 -fasynchronous-unwind-tables -fstack-protector-strong -fstack-clash-protection -fcf-protection
	.text
.Ltext0:
	.file 0 "/home/j/dev/hpc/assignments/1" "inline_manually.c"
	.section	.rodata.str1.8,"aMS",@progbits,1
	.align 8
.LC2:
	.string	"First elements of as_re and as_im are: (%f, %f)\n"
	.align 8
.LC3:
	.string	"Function inserted in loop took %f seconds to run.\n"
	.section	.text.startup,"ax",@progbits
	.p2align 4
	.globl	main
	.type	main, @function
main:
.LFB39:
	.file 1 "inline_manually.c"
	.loc 1 9 16 view -0
	.cfi_startproc
	endbr64	
	pushq	%r15	#
	.cfi_def_cfa_offset 16
	.cfi_offset 15, -16
# inline_manually.c:12:   clock_gettime(CLOCK_MONOTONIC, &bench_start_time);
	.loc 1 12 3 is_stmt 0 view .LVU1
	movl	$1, %edi	#,
# inline_manually.c:23:   double *cs_im = malloc(len * sizeof(double));
	.loc 1 23 19 view .LVU2
	xorl	%r15d, %r15d	# ivtmp.62
# inline_manually.c:9: int main(void) {
	.loc 1 9 16 view .LVU3
	pushq	%r14	#
	.cfi_def_cfa_offset 24
	.cfi_offset 14, -24
	pushq	%r13	#
	.cfi_def_cfa_offset 32
	.cfi_offset 13, -32
	pushq	%r12	#
	.cfi_def_cfa_offset 40
	.cfi_offset 12, -40
	pushq	%rbp	#
	.cfi_def_cfa_offset 48
	.cfi_offset 6, -48
	pushq	%rbx	#
	.cfi_def_cfa_offset 56
	.cfi_offset 3, -56
	subq	$72, %rsp	#,
	.cfi_def_cfa_offset 128
# inline_manually.c:9: int main(void) {
	.loc 1 9 16 view .LVU4
	movq	%fs:40, %rax	# MEM[(<address-space-1> long unsigned int *)40B], tmp194
	movq	%rax, 56(%rsp)	# tmp194, D.4261
	xorl	%eax, %eax	# tmp194
	.loc 1 10 3 is_stmt 1 view .LVU5
	.loc 1 11 3 view .LVU6
	.loc 1 12 3 view .LVU7
	leaq	16(%rsp), %rsi	#, tmp130
	call	clock_gettime@PLT	#
.LVL0:
	.loc 1 13 3 view .LVU8
	.loc 1 14 3 view .LVU9
	.loc 1 15 3 view .LVU10
# inline_manually.c:15:   srand(time(NULL));
	.loc 1 15 9 is_stmt 0 view .LVU11
	xorl	%edi, %edi	#
	call	time@PLT	#
.LVL1:
# inline_manually.c:15:   srand(time(NULL));
	.loc 1 15 3 discriminator 1 view .LVU12
	movl	%eax, %edi	# tmp182, _1
	call	srand@PLT	#
.LVL2:
	.loc 1 17 3 is_stmt 1 view .LVU13
# inline_manually.c:17:   double *as_re = malloc(len * sizeof(double));
	.loc 1 17 19 is_stmt 0 view .LVU14
	movl	$240000, %edi	#,
	call	malloc@PLT	#
.LVL3:
# inline_manually.c:18:   double *bs_re = malloc(len * sizeof(double));
	.loc 1 18 19 view .LVU15
	movl	$240000, %edi	#,
# inline_manually.c:17:   double *as_re = malloc(len * sizeof(double));
	.loc 1 17 19 view .LVU16
	movq	%rax, 8(%rsp)	# as_re, %sfp
.LVL4:
	.loc 1 18 3 is_stmt 1 view .LVU17
# inline_manually.c:18:   double *bs_re = malloc(len * sizeof(double));
	.loc 1 18 19 is_stmt 0 view .LVU18
	call	malloc@PLT	#
.LVL5:
# inline_manually.c:19:   double *cs_re = malloc(len * sizeof(double));
	.loc 1 19 19 view .LVU19
	movl	$240000, %edi	#,
# inline_manually.c:18:   double *bs_re = malloc(len * sizeof(double));
	.loc 1 18 19 view .LVU20
	movq	%rax, %r13	# tmp184, bs_re
.LVL6:
	.loc 1 19 3 is_stmt 1 view .LVU21
# inline_manually.c:19:   double *cs_re = malloc(len * sizeof(double));
	.loc 1 19 19 is_stmt 0 view .LVU22
	call	malloc@PLT	#
.LVL7:
# inline_manually.c:21:   double *as_im = malloc(len * sizeof(double));
	.loc 1 21 19 view .LVU23
	movl	$240000, %edi	#,
# inline_manually.c:19:   double *cs_re = malloc(len * sizeof(double));
	.loc 1 19 19 view .LVU24
	movq	%rax, %r12	# tmp185, cs_re
.LVL8:
	.loc 1 21 3 is_stmt 1 view .LVU25
# inline_manually.c:21:   double *as_im = malloc(len * sizeof(double));
	.loc 1 21 19 is_stmt 0 view .LVU26
	call	malloc@PLT	#
.LVL9:
# inline_manually.c:22:   double *bs_im = malloc(len * sizeof(double));
	.loc 1 22 19 view .LVU27
	movl	$240000, %edi	#,
# inline_manually.c:21:   double *as_im = malloc(len * sizeof(double));
	.loc 1 21 19 view .LVU28
	movq	%rax, %r14	# tmp186, as_im
.LVL10:
	.loc 1 22 3 is_stmt 1 view .LVU29
# inline_manually.c:22:   double *bs_im = malloc(len * sizeof(double));
	.loc 1 22 19 is_stmt 0 view .LVU30
	call	malloc@PLT	#
.LVL11:
# inline_manually.c:23:   double *cs_im = malloc(len * sizeof(double));
	.loc 1 23 19 view .LVU31
	movl	$240000, %edi	#,
# inline_manually.c:22:   double *bs_im = malloc(len * sizeof(double));
	.loc 1 22 19 view .LVU32
	movq	%rax, %rbp	# tmp187, bs_im
.LVL12:
	.loc 1 23 3 is_stmt 1 view .LVU33
# inline_manually.c:23:   double *cs_im = malloc(len * sizeof(double));
	.loc 1 23 19 is_stmt 0 view .LVU34
	call	malloc@PLT	#
.LVL13:
	.loc 1 23 19 view .LVU35
	movq	8(%rsp), %rcx	# %sfp, as_re
	movq	%rax, %rbx	# tmp188, cs_im
.LVL14:
	.loc 1 25 3 is_stmt 1 view .LVU36
.LBB9:
	.loc 1 25 8 view .LVU37
	.loc 1 25 21 discriminator 1 view .LVU38
	.p2align 4,,10
	.p2align 3
.L2:
	.loc 1 25 21 is_stmt 0 discriminator 1 view .LVU39
	movq	%rcx, 8(%rsp)	# as_re, %sfp
.LVL15:
	.loc 1 26 5 is_stmt 1 view .LVU40
# inline_manually.c:26:     bs_re[i] = (double)rand() / RAND_MAX;
	.loc 1 26 24 is_stmt 0 view .LVU41
	call	rand@PLT	#
.LVL16:
# inline_manually.c:26:     bs_re[i] = (double)rand() / RAND_MAX;
	.loc 1 26 16 discriminator 1 view .LVU42
	pxor	%xmm0, %xmm0	# tmp138
	cvtsi2sdl	%eax, %xmm0	# tmp189, tmp138
# inline_manually.c:26:     bs_re[i] = (double)rand() / RAND_MAX;
	.loc 1 26 31 discriminator 1 view .LVU43
	divsd	.LC0(%rip), %xmm0	#, tmp139
# inline_manually.c:26:     bs_re[i] = (double)rand() / RAND_MAX;
	.loc 1 26 14 discriminator 1 view .LVU44
	movsd	%xmm0, 0(%r13,%r15)	# tmp139, MEM[(double *)bs_re_64 + ivtmp.62_106 * 1]
	.loc 1 27 5 is_stmt 1 view .LVU45
# inline_manually.c:27:     cs_re[i] = (double)rand() / RAND_MAX;
	.loc 1 27 24 is_stmt 0 view .LVU46
	call	rand@PLT	#
.LVL17:
# inline_manually.c:27:     cs_re[i] = (double)rand() / RAND_MAX;
	.loc 1 27 16 discriminator 1 view .LVU47
	pxor	%xmm0, %xmm0	# tmp141
	cvtsi2sdl	%eax, %xmm0	# tmp190, tmp141
# inline_manually.c:27:     cs_re[i] = (double)rand() / RAND_MAX;
	.loc 1 27 31 discriminator 1 view .LVU48
	divsd	.LC0(%rip), %xmm0	#, tmp142
# inline_manually.c:27:     cs_re[i] = (double)rand() / RAND_MAX;
	.loc 1 27 14 discriminator 1 view .LVU49
	movsd	%xmm0, (%r12,%r15)	# tmp142, MEM[(double *)cs_re_66 + ivtmp.62_106 * 1]
	.loc 1 29 5 is_stmt 1 view .LVU50
# inline_manually.c:29:     bs_im[i] = (double)rand() / RAND_MAX;
	.loc 1 29 24 is_stmt 0 view .LVU51
	call	rand@PLT	#
.LVL18:
# inline_manually.c:29:     bs_im[i] = (double)rand() / RAND_MAX;
	.loc 1 29 16 discriminator 1 view .LVU52
	pxor	%xmm0, %xmm0	# tmp144
	cvtsi2sdl	%eax, %xmm0	# tmp191, tmp144
# inline_manually.c:29:     bs_im[i] = (double)rand() / RAND_MAX;
	.loc 1 29 31 discriminator 1 view .LVU53
	divsd	.LC0(%rip), %xmm0	#, tmp145
# inline_manually.c:29:     bs_im[i] = (double)rand() / RAND_MAX;
	.loc 1 29 14 discriminator 1 view .LVU54
	movsd	%xmm0, 0(%rbp,%r15)	# tmp145, MEM[(double *)bs_im_70 + ivtmp.62_106 * 1]
	.loc 1 30 5 is_stmt 1 view .LVU55
# inline_manually.c:30:     cs_im[i] = (double)rand() / RAND_MAX;
	.loc 1 30 24 is_stmt 0 view .LVU56
	call	rand@PLT	#
.LVL19:
# inline_manually.c:30:     cs_im[i] = (double)rand() / RAND_MAX;
	.loc 1 30 16 discriminator 1 view .LVU57
	pxor	%xmm0, %xmm0	# tmp147
# inline_manually.c:25:   for (int i = 0; i < len; i++) {
	.loc 1 25 21 discriminator 1 view .LVU58
	movq	8(%rsp), %rcx	# %sfp, as_re
# inline_manually.c:30:     cs_im[i] = (double)rand() / RAND_MAX;
	.loc 1 30 16 discriminator 1 view .LVU59
	cvtsi2sdl	%eax, %xmm0	# tmp192, tmp147
# inline_manually.c:30:     cs_im[i] = (double)rand() / RAND_MAX;
	.loc 1 30 31 discriminator 1 view .LVU60
	divsd	.LC0(%rip), %xmm0	#, tmp148
# inline_manually.c:30:     cs_im[i] = (double)rand() / RAND_MAX;
	.loc 1 30 14 discriminator 1 view .LVU61
	movsd	%xmm0, (%rbx,%r15)	# tmp148, MEM[(double *)cs_im_72 + ivtmp.62_106 * 1]
	.loc 1 25 29 is_stmt 1 discriminator 3 view .LVU62
.LVL20:
	.loc 1 25 21 discriminator 1 view .LVU63
	addq	$8, %r15	#, ivtmp.62
.LVL21:
	.loc 1 25 21 is_stmt 0 discriminator 1 view .LVU64
	cmpq	$240000, %r15	#, ivtmp.62
	jne	.L2	#,
	movl	$200000, %edx	#, ivtmp_115
.L3:
.LVL22:
	.loc 1 25 21 discriminator 1 view .LVU65
.LBE9:
.LBB10:
.LBB11:
	.loc 1 34 23 is_stmt 1 discriminator 1 view .LVU66
.LBE11:
.LBE10:
# inline_manually.c:23:   double *cs_im = malloc(len * sizeof(double));
	.loc 1 23 19 is_stmt 0 view .LVU67
	xorl	%eax, %eax	# ivtmp.33
.LVL23:
	.p2align 4,,10
	.p2align 3
.L4:
.LBB13:
.LBB12:
	.loc 1 35 7 is_stmt 1 view .LVU68
# inline_manually.c:35:       as_re[i] = bs_re[i] * cs_re[i] - bs_im[i] * cs_im[i];
	.loc 1 35 27 is_stmt 0 view .LVU69
	movupd	0(%r13,%rax), %xmm3	# MEM <vector(2) double> [(double *)bs_re_64 + ivtmp.33_105 * 1], tmp199
# inline_manually.c:35:       as_re[i] = bs_re[i] * cs_re[i] - bs_im[i] * cs_im[i];
	.loc 1 35 49 view .LVU70
	movupd	(%rbx,%rax), %xmm4	# MEM <vector(2) double> [(double *)cs_im_72 + ivtmp.33_105 * 1], tmp201
# inline_manually.c:35:       as_re[i] = bs_re[i] * cs_re[i] - bs_im[i] * cs_im[i];
	.loc 1 35 27 view .LVU71
	movupd	(%r12,%rax), %xmm0	# MEM <vector(2) double> [(double *)cs_re_66 + ivtmp.33_105 * 1], vect__27.13
# inline_manually.c:35:       as_re[i] = bs_re[i] * cs_re[i] - bs_im[i] * cs_im[i];
	.loc 1 35 49 view .LVU72
	movupd	0(%rbp,%rax), %xmm1	# MEM <vector(2) double> [(double *)bs_im_70 + ivtmp.33_105 * 1], vect__32.20
# inline_manually.c:36:       as_im[i] = bs_re[i] * cs_im[i] + bs_im[i] * cs_re[i];
	.loc 1 36 49 view .LVU73
	movupd	(%r12,%rax), %xmm6	# MEM <vector(2) double> [(double *)cs_re_66 + ivtmp.33_105 * 1], tmp205
# inline_manually.c:35:       as_re[i] = bs_re[i] * cs_re[i] - bs_im[i] * cs_im[i];
	.loc 1 35 49 view .LVU74
	mulpd	%xmm4, %xmm1	# tmp201, vect__32.20
# inline_manually.c:35:       as_re[i] = bs_re[i] * cs_re[i] - bs_im[i] * cs_im[i];
	.loc 1 35 27 view .LVU75
	mulpd	%xmm3, %xmm0	# tmp199, vect__27.13
# inline_manually.c:35:       as_re[i] = bs_re[i] * cs_re[i] - bs_im[i] * cs_im[i];
	.loc 1 35 38 view .LVU76
	subpd	%xmm1, %xmm0	# vect__32.20, vect__34.21
# inline_manually.c:36:       as_im[i] = bs_re[i] * cs_im[i] + bs_im[i] * cs_re[i];
	.loc 1 36 49 view .LVU77
	movupd	0(%rbp,%rax), %xmm1	# MEM <vector(2) double> [(double *)bs_im_70 + ivtmp.33_105 * 1], vect__36.25
	mulpd	%xmm6, %xmm1	# tmp205, vect__36.25
# inline_manually.c:35:       as_re[i] = bs_re[i] * cs_re[i] - bs_im[i] * cs_im[i];
	.loc 1 35 16 view .LVU78
	movups	%xmm0, (%rcx,%rax)	# vect__34.21, MEM <vector(2) double> [(double *)as_re_62 + ivtmp.33_105 * 1]
	.loc 1 36 7 is_stmt 1 view .LVU79
# inline_manually.c:36:       as_im[i] = bs_re[i] * cs_im[i] + bs_im[i] * cs_re[i];
	.loc 1 36 27 is_stmt 0 view .LVU80
	movapd	%xmm3, %xmm0	# tmp199, vect__35.24
	mulpd	%xmm4, %xmm0	# tmp203, vect__35.24
# inline_manually.c:36:       as_im[i] = bs_re[i] * cs_im[i] + bs_im[i] * cs_re[i];
	.loc 1 36 38 view .LVU81
	addpd	%xmm1, %xmm0	# vect__36.25, vect__38.26
# inline_manually.c:36:       as_im[i] = bs_re[i] * cs_im[i] + bs_im[i] * cs_re[i];
	.loc 1 36 16 view .LVU82
	movups	%xmm0, (%r14,%rax)	# vect__38.26, MEM <vector(2) double> [(double *)as_im_68 + ivtmp.33_105 * 1]
	.loc 1 34 31 is_stmt 1 discriminator 3 view .LVU83
	.loc 1 34 23 discriminator 1 view .LVU84
	addq	$16, %rax	#, ivtmp.33
	cmpq	$240000, %rax	#, ivtmp.33
	jne	.L4	#,
.LBE12:
	.loc 1 33 36 discriminator 2 view .LVU85
	.loc 1 33 21 discriminator 1 view .LVU86
	subl	$1, %edx	#, ivtmp_115
	jne	.L3	#,
.LBE13:
# inline_manually.c:39:   clock_gettime(CLOCK_MONOTONIC, &bench_stop_time);
	.loc 1 39 3 is_stmt 0 view .LVU87
	leaq	32(%rsp), %rsi	#, tmp160
	movl	$1, %edi	#,
	movq	%rcx, 8(%rsp)	# as_re, %sfp
	.loc 1 39 3 is_stmt 1 view .LVU88
	call	clock_gettime@PLT	#
.LVL24:
	.loc 1 40 3 view .LVU89
# inline_manually.c:40:   bench_diff_time = (difftime(bench_stop_time.tv_sec, bench_start_time.tv_sec) * 1000000 +
	.loc 1 40 22 is_stmt 0 view .LVU90
	movq	16(%rsp), %rsi	# bench_start_time.tv_sec,
	movq	32(%rsp), %rdi	# bench_stop_time.tv_sec,
	call	difftime@PLT	#
.LVL25:
# inline_manually.c:41:     (bench_stop_time.tv_nsec - bench_start_time.tv_nsec) / 1000) / 1E6;
	.loc 1 41 30 view .LVU91
	movq	40(%rsp), %rsi	# bench_stop_time.tv_nsec, bench_stop_time.tv_nsec
	subq	24(%rsp), %rsi	# bench_start_time.tv_nsec, tmp163
# inline_manually.c:41:     (bench_stop_time.tv_nsec - bench_start_time.tv_nsec) / 1000) / 1E6;
	.loc 1 41 58 view .LVU92
	movabsq	$2361183241434822607, %rax	#, tmp195
	imulq	%rsi	# tmp163
# inline_manually.c:40:   bench_diff_time = (difftime(bench_stop_time.tv_sec, bench_start_time.tv_sec) * 1000000 +
	.loc 1 40 22 view .LVU93
	movapd	%xmm0, %xmm1	#, tmp193
# inline_manually.c:41:     (bench_stop_time.tv_nsec - bench_start_time.tv_nsec) / 1000) / 1E6;
	.loc 1 41 58 view .LVU94
	sarq	$63, %rsi	#, tmp169
# inline_manually.c:40:   bench_diff_time = (difftime(bench_stop_time.tv_sec, bench_start_time.tv_sec) * 1000000 +
	.loc 1 40 80 discriminator 1 view .LVU95
	movsd	.LC1(%rip), %xmm2	#, tmp172
# inline_manually.c:40:   bench_diff_time = (difftime(bench_stop_time.tv_sec, bench_start_time.tv_sec) * 1000000 +
	.loc 1 40 90 view .LVU96
	pxor	%xmm0, %xmm0	# tmp170
.LBB14:
.LBB15:
# /usr/include/x86_64-linux-gnu/bits/stdio2.h:86:   return __printf_chk (__USE_FORTIFY_LEVEL - 1, __fmt, __va_arg_pack ());
	.file 2 "/usr/include/x86_64-linux-gnu/bits/stdio2.h"
	.loc 2 86 10 view .LVU97
	movq	8(%rsp), %rcx	# %sfp, as_re
	movl	$2, %edi	#,
.LBE15:
.LBE14:
# inline_manually.c:40:   bench_diff_time = (difftime(bench_stop_time.tv_sec, bench_start_time.tv_sec) * 1000000 +
	.loc 1 40 80 discriminator 1 view .LVU98
	mulsd	%xmm2, %xmm1	# tmp172, tmp171
# inline_manually.c:41:     (bench_stop_time.tv_nsec - bench_start_time.tv_nsec) / 1000) / 1E6;
	.loc 1 41 58 view .LVU99
	movq	%rdx, %rax	# tmp166, tmp166
	sarq	$7, %rax	#, tmp166
	subq	%rsi, %rax	# tmp169, tmp165
.LBB20:
.LBB16:
# /usr/include/x86_64-linux-gnu/bits/stdio2.h:86:   return __printf_chk (__USE_FORTIFY_LEVEL - 1, __fmt, __va_arg_pack ());
	.loc 2 86 10 view .LVU100
	leaq	.LC2(%rip), %rsi	#, tmp177
.LBE16:
.LBE20:
# inline_manually.c:40:   bench_diff_time = (difftime(bench_stop_time.tv_sec, bench_start_time.tv_sec) * 1000000 +
	.loc 1 40 90 view .LVU101
	cvtsi2sdq	%rax, %xmm0	# tmp165, tmp170
.LBB21:
.LBB17:
# /usr/include/x86_64-linux-gnu/bits/stdio2.h:86:   return __printf_chk (__USE_FORTIFY_LEVEL - 1, __fmt, __va_arg_pack ());
	.loc 2 86 10 view .LVU102
	movl	$2, %eax	#,
.LBE17:
.LBE21:
# inline_manually.c:40:   bench_diff_time = (difftime(bench_stop_time.tv_sec, bench_start_time.tv_sec) * 1000000 +
	.loc 1 40 90 view .LVU103
	addsd	%xmm1, %xmm0	# tmp171, tmp173
.LBB22:
.LBB18:
# /usr/include/x86_64-linux-gnu/bits/stdio2.h:86:   return __printf_chk (__USE_FORTIFY_LEVEL - 1, __fmt, __va_arg_pack ());
	.loc 2 86 10 view .LVU104
	movsd	(%r14), %xmm1	# *as_im_68,
.LBE18:
.LBE22:
# inline_manually.c:40:   bench_diff_time = (difftime(bench_stop_time.tv_sec, bench_start_time.tv_sec) * 1000000 +
	.loc 1 40 19 view .LVU105
	divsd	%xmm2, %xmm0	# tmp172, tmp173
	movq	%xmm0, %r15	# tmp173, bench_diff_time
.LVL26:
	.loc 1 42 3 is_stmt 1 view .LVU106
.LBB23:
.LBI14:
	.loc 2 84 1 view .LVU107
.LBB19:
	.loc 2 86 3 view .LVU108
# /usr/include/x86_64-linux-gnu/bits/stdio2.h:86:   return __printf_chk (__USE_FORTIFY_LEVEL - 1, __fmt, __va_arg_pack ());
	.loc 2 86 10 is_stmt 0 view .LVU109
	movsd	(%rcx), %xmm0	# *as_re_62, *as_re_62
.LVL27:
	.loc 2 86 10 view .LVU110
	call	__printf_chk@PLT	#
.LVL28:
	.loc 2 86 10 view .LVU111
.LBE19:
.LBE23:
	.loc 1 43 3 is_stmt 1 view .LVU112
.LBB24:
.LBI24:
	.loc 2 84 1 view .LVU113
.LBB25:
	.loc 2 86 3 view .LVU114
# /usr/include/x86_64-linux-gnu/bits/stdio2.h:86:   return __printf_chk (__USE_FORTIFY_LEVEL - 1, __fmt, __va_arg_pack ());
	.loc 2 86 10 is_stmt 0 view .LVU115
	movq	%r15, %xmm0	# bench_diff_time,
	movl	$2, %edi	#,
	leaq	.LC3(%rip), %rsi	#, tmp178
	movl	$1, %eax	#,
	call	__printf_chk@PLT	#
.LVL29:
	.loc 2 86 10 view .LVU116
.LBE25:
.LBE24:
	.loc 1 44 3 is_stmt 1 view .LVU117
	movq	8(%rsp), %rdi	# %sfp,
	call	free@PLT	#
.LVL30:
	.loc 1 45 3 view .LVU118
	movq	%r13, %rdi	# bs_re,
	call	free@PLT	#
.LVL31:
	.loc 1 46 3 view .LVU119
	movq	%r12, %rdi	# cs_re,
	call	free@PLT	#
.LVL32:
	.loc 1 47 3 view .LVU120
	movq	%r14, %rdi	# as_im,
	call	free@PLT	#
.LVL33:
	.loc 1 48 3 view .LVU121
	movq	%rbp, %rdi	# bs_im,
	call	free@PLT	#
.LVL34:
	.loc 1 49 3 view .LVU122
	movq	%rbx, %rdi	# cs_im,
	call	free@PLT	#
.LVL35:
# inline_manually.c:50: }
	.loc 1 50 1 is_stmt 0 view .LVU123
	movq	56(%rsp), %rax	# D.4261, tmp196
	subq	%fs:40, %rax	# MEM[(<address-space-1> long unsigned int *)40B], tmp196
	jne	.L11	#,
	addq	$72, %rsp	#,
	.cfi_remember_state
	.cfi_def_cfa_offset 56
	xorl	%eax, %eax	#
	popq	%rbx	#
	.cfi_def_cfa_offset 48
.LVL36:
	.loc 1 50 1 view .LVU124
	popq	%rbp	#
	.cfi_def_cfa_offset 40
.LVL37:
	.loc 1 50 1 view .LVU125
	popq	%r12	#
	.cfi_def_cfa_offset 32
.LVL38:
	.loc 1 50 1 view .LVU126
	popq	%r13	#
	.cfi_def_cfa_offset 24
.LVL39:
	.loc 1 50 1 view .LVU127
	popq	%r14	#
	.cfi_def_cfa_offset 16
.LVL40:
	.loc 1 50 1 view .LVU128
	popq	%r15	#
	.cfi_def_cfa_offset 8
.LVL41:
	.loc 1 50 1 view .LVU129
	ret	
.LVL42:
.L11:
	.cfi_restore_state
	.loc 1 50 1 view .LVU130
	call	__stack_chk_fail@PLT	#
.LVL43:
	.cfi_endproc
.LFE39:
	.size	main, .-main
	.section	.rodata.cst8,"aM",@progbits,8
	.align 8
.LC0:
	.long	-4194304
	.long	1105199103
	.align 8
.LC1:
	.long	0
	.long	1093567616
	.text
.Letext0:
	.file 3 "/usr/lib/gcc/x86_64-linux-gnu/13/include/stddef.h"
	.file 4 "/usr/include/x86_64-linux-gnu/bits/types.h"
	.file 5 "/usr/include/x86_64-linux-gnu/bits/types/clockid_t.h"
	.file 6 "/usr/include/x86_64-linux-gnu/bits/types/time_t.h"
	.file 7 "/usr/include/x86_64-linux-gnu/bits/types/struct_timespec.h"
	.file 8 "/usr/include/x86_64-linux-gnu/bits/stdio2-decl.h"
	.file 9 "/usr/include/time.h"
	.file 10 "/usr/include/stdlib.h"
	.section	.note.GNU-stack,"",@progbits
	.section	.note.gnu.property,"a"
	.align 8
	.long	1f - 0f
	.long	4f - 1f
	.long	5
0:
	.string	"GNU"
1:
	.align 8
	.long	0xc0000002
	.long	3f - 2f
2:
	.long	0x3
3:
	.align 8
4:
